target datalayout = "e-m:e-p270:32:32-p271:32:32-p272:64:64-i64:64-i128:128-f80:128-n8:16:32:64-S128"
target triple = "x86_64-pc-linux-gnu"

%struct.strbuf = type { i64, i64, ptr }
%struct.wt_status = type { ptr, i32, ptr, ptr, %struct.pathspec, i32, i32, i32, i32, i32, i32, i32, i32, i32, i32, i32, ptr, [9 x [75 x i8]], i32, i32, i32, i32, i32, i32, i32, i32, i32, i32, i32, i8, %struct.wt_status_state, %struct.object_id, i32, i32, ptr, ptr, ptr, %struct.string_list, %struct.string_list, %struct.string_list, i32 }
%struct.pathspec = type { i32, i8, i32, i32, ptr }
%struct.wt_status_state = type { i32, i32, i32, i32, i32, i32, i32, i32, i32, i32, ptr, ptr, ptr, ptr, %struct.object_id, %struct.object_id, %struct.object_id }
%struct.object_id = type { [32 x i8], i32 }
%struct.string_list = type { ptr, i64, i64, i8, ptr }

@.str = private unnamed_addr constant [2 x i8] c"\0A\00", align 1
@strbuf_slopbuf = external global [0 x i8], align 1
@comment_line_str = external global ptr, align 8
@.str.10 = private unnamed_addr constant [3 x i8] c"%s\00", align 1
@__const.status_vprintf.sb = private unnamed_addr constant %struct.strbuf { i64 0, i64 0, ptr @strbuf_slopbuf }, align 8
@__const.status_vprintf.linebuf = private unnamed_addr constant %struct.strbuf { i64 0, i64 0, ptr @strbuf_slopbuf }, align 8
@.str.34 = private unnamed_addr constant [11 x i8] c"./strbuf.h\00", align 1
@.str.35 = private unnamed_addr constant [30 x i8] c"strbuf_setlen() beyond buffer\00", align 1

; Function Attrs: inlinehint nounwind uwtable
define internal i64 @strbuf_avail(ptr noundef %0) #8 {
  %2 = alloca ptr, align 8
  store ptr %0, ptr %2, align 8, !tbaa !186
  %3 = load ptr, ptr %2, align 8, !tbaa !186
  %4 = getelementptr inbounds nuw %struct.strbuf, ptr %3, i32 0, i32 0
  %5 = load i64, ptr %4, align 8, !tbaa !244
  %6 = icmp ne i64 %5, 0
  br i1 %6, label %7, label %16

7:                                                ; preds = %1
  %8 = load ptr, ptr %2, align 8, !tbaa !186
  %9 = getelementptr inbounds nuw %struct.strbuf, ptr %8, i32 0, i32 0
  %10 = load i64, ptr %9, align 8, !tbaa !244
  %11 = load ptr, ptr %2, align 8, !tbaa !186
  %12 = getelementptr inbounds nuw %struct.strbuf, ptr %11, i32 0, i32 1
  %13 = load i64, ptr %12, align 8, !tbaa !15
  %14 = sub i64 %10, %13
  %15 = sub i64 %14, 1
  br label %17

16:                                               ; preds = %1
  br label %17

17:                                               ; preds = %16, %7
  %18 = phi i64 [ %15, %7 ], [ 0, %16 ]
  ret i64 %18
}

; Function Attrs: inlinehint nounwind uwtable
define internal void @strbuf_setlen(ptr noundef %0, i64 noundef %1) #8 {
  %3 = alloca ptr, align 8
  %4 = alloca i64, align 8
  store ptr %0, ptr %3, align 8, !tbaa !186
  store i64 %1, ptr %4, align 8, !tbaa !153
  %5 = load i64, ptr %4, align 8, !tbaa !153
  %6 = load ptr, ptr %3, align 8, !tbaa !186
  %7 = getelementptr inbounds nuw %struct.strbuf, ptr %6, i32 0, i32 0
  %8 = load i64, ptr %7, align 8, !tbaa !244
  %9 = icmp ne i64 %8, 0
  br i1 %9, label %10, label %15

10:                                               ; preds = %2
  %11 = load ptr, ptr %3, align 8, !tbaa !186
  %12 = getelementptr inbounds nuw %struct.strbuf, ptr %11, i32 0, i32 0
  %13 = load i64, ptr %12, align 8, !tbaa !244
  %14 = sub i64 %13, 1
  br label %16

15:                                               ; preds = %2
  br label %16

16:                                               ; preds = %15, %10
  %17 = phi i64 [ %14, %10 ], [ 0, %15 ]
  %18 = icmp ugt i64 %5, %17
  br i1 %18, label %19, label %20

19:                                               ; preds = %16
  call void (ptr, i32, ptr, ...) @BUG_fl(ptr noundef @.str.34, i32 noundef 167, ptr noundef @.str.35) #14
  unreachable

20:                                               ; preds = %16
  %21 = load i64, ptr %4, align 8, !tbaa !153
  %22 = load ptr, ptr %3, align 8, !tbaa !186
  %23 = getelementptr inbounds nuw %struct.strbuf, ptr %22, i32 0, i32 1
  store i64 %21, ptr %23, align 8, !tbaa !15
  %24 = load ptr, ptr %3, align 8, !tbaa !186
  %25 = getelementptr inbounds nuw %struct.strbuf, ptr %24, i32 0, i32 2
  %26 = load ptr, ptr %25, align 8, !tbaa !29
  %27 = icmp ne ptr %26, @strbuf_slopbuf
  br i1 %27, label %28, label %34

28:                                               ; preds = %20
  %29 = load ptr, ptr %3, align 8, !tbaa !186
  %30 = getelementptr inbounds nuw %struct.strbuf, ptr %29, i32 0, i32 2
  %31 = load ptr, ptr %30, align 8, !tbaa !29
  %32 = load i64, ptr %4, align 8, !tbaa !153
  %33 = getelementptr inbounds nuw i8, ptr %31, i64 %32
  store i8 0, ptr %33, align 1, !tbaa !30
  br label %35

34:                                               ; preds = %20
  br label %35

35:                                               ; preds = %34, %28
  ret void
}

; Function Attrs: inlinehint nounwind uwtable
define internal void @strbuf_addch(ptr noundef %0, i32 noundef %1) #8 {
  %3 = alloca ptr, align 8
  %4 = alloca i32, align 4
  store ptr %0, ptr %3, align 8, !tbaa !186
  store i32 %1, ptr %4, align 4, !tbaa !11
  %5 = load ptr, ptr %3, align 8, !tbaa !186
  %6 = call i64 @strbuf_avail(ptr noundef %5)
  %7 = icmp ne i64 %6, 0
  br i1 %7, label %10, label %8

8:                                                ; preds = %2
  %9 = load ptr, ptr %3, align 8, !tbaa !186
  call void @strbuf_grow(ptr noundef %9, i64 noundef 1)
  br label %10

10:                                               ; preds = %8, %2
  %11 = load i32, ptr %4, align 4, !tbaa !11
  %12 = trunc i32 %11 to i8
  %13 = load ptr, ptr %3, align 8, !tbaa !186
  %14 = getelementptr inbounds nuw %struct.strbuf, ptr %13, i32 0, i32 2
  %15 = load ptr, ptr %14, align 8, !tbaa !29
  %16 = load ptr, ptr %3, align 8, !tbaa !186
  %17 = getelementptr inbounds nuw %struct.strbuf, ptr %16, i32 0, i32 1
  %18 = load i64, ptr %17, align 8, !tbaa !15
  %19 = add i64 %18, 1
  store i64 %19, ptr %17, align 8, !tbaa !15
  %20 = getelementptr inbounds nuw i8, ptr %15, i64 %18
  store i8 %12, ptr %20, align 1, !tbaa !30
  %21 = load ptr, ptr %3, align 8, !tbaa !186
  %22 = getelementptr inbounds nuw %struct.strbuf, ptr %21, i32 0, i32 2
  %23 = load ptr, ptr %22, align 8, !tbaa !29
  %24 = load ptr, ptr %3, align 8, !tbaa !186
  %25 = getelementptr inbounds nuw %struct.strbuf, ptr %24, i32 0, i32 1
  %26 = load i64, ptr %25, align 8, !tbaa !15
  %27 = getelementptr inbounds nuw i8, ptr %23, i64 %26
  store i8 0, ptr %27, align 1, !tbaa !30
  ret void
}

; Function Attrs: inlinehint nounwind uwtable
define internal void @strbuf_addstr(ptr noundef %0, ptr noundef %1) #8 {
  %3 = alloca ptr, align 8
  %4 = alloca ptr, align 8
  store ptr %0, ptr %3, align 8, !tbaa !186
  store ptr %1, ptr %4, align 8, !tbaa !9
  %5 = load ptr, ptr %3, align 8, !tbaa !186
  %6 = load ptr, ptr %4, align 8, !tbaa !9
  %7 = load ptr, ptr %4, align 8, !tbaa !9
  %8 = call i64 @strlen(ptr noundef %7) #13
  call void @strbuf_add(ptr noundef %5, ptr noundef %6, i64 noundef %8)
  ret void
}

; Function Attrs: nounwind uwtable
define internal void @status_vprintf(ptr noundef %0, i32 noundef %1, ptr noundef %2, ptr noundef %3, ptr noundef %4, ptr noundef %5) #0 {
  %7 = alloca ptr, align 8
  %8 = alloca i32, align 4
  %9 = alloca ptr, align 8
  %10 = alloca ptr, align 8
  %11 = alloca ptr, align 8
  %12 = alloca ptr, align 8
  %13 = alloca %struct.strbuf, align 8
  %14 = alloca %struct.strbuf, align 8
  %15 = alloca ptr, align 8
  %16 = alloca ptr, align 8
  %17 = alloca i32, align 4
  store ptr %0, ptr %7, align 8, !tbaa !4
  store i32 %1, ptr %8, align 4, !tbaa !11
  store ptr %2, ptr %9, align 8, !tbaa !9
  store ptr %3, ptr %10, align 8, !tbaa !9
  store ptr %4, ptr %11, align 8, !tbaa !13
  store ptr %5, ptr %12, align 8, !tbaa !9
  call void @llvm.lifetime.start.p0(i64 24, ptr %13) #12
  call void @llvm.memcpy.p0.p0.i64(ptr align 8 %13, ptr align 8 @__const.status_vprintf.sb, i64 24, i1 false)
  call void @llvm.lifetime.start.p0(i64 24, ptr %14) #12
  call void @llvm.memcpy.p0.p0.i64(ptr align 8 %14, ptr align 8 @__const.status_vprintf.linebuf, i64 24, i1 false)
  call void @llvm.lifetime.start.p0(i64 8, ptr %15) #12
  call void @llvm.lifetime.start.p0(i64 8, ptr %16) #12
  %18 = load ptr, ptr %10, align 8, !tbaa !9
  %19 = load ptr, ptr %11, align 8, !tbaa !13
  call void @strbuf_vaddf(ptr noundef %13, ptr noundef %18, ptr noundef %19)
  %20 = getelementptr inbounds nuw %struct.strbuf, ptr %13, i32 0, i32 1
  %21 = load i64, ptr %20, align 8, !tbaa !15
  %22 = icmp ne i64 %21, 0
  br i1 %22, label %48, label %23

23:                                               ; preds = %6
  %24 = load ptr, ptr %7, align 8, !tbaa !4
  %25 = getelementptr inbounds nuw %struct.wt_status, ptr %24, i32 0, i32 11
  %26 = load i32, ptr %25, align 8, !tbaa !18
  %27 = icmp ne i32 %26, 0
  br i1 %27, label %28, label %34

28:                                               ; preds = %23
  %29 = load ptr, ptr @comment_line_str, align 8, !tbaa !9
  call void @strbuf_addstr(ptr noundef %13, ptr noundef %29)
  %30 = load ptr, ptr %12, align 8, !tbaa !9
  %31 = icmp ne ptr %30, null
  br i1 %31, label %33, label %32

32:                                               ; preds = %28
  call void @strbuf_addch(ptr noundef %13, i32 noundef 32)
  br label %33

33:                                               ; preds = %32, %28
  br label %34

34:                                               ; preds = %33, %23
  %35 = load ptr, ptr %7, align 8, !tbaa !4
  %36 = getelementptr inbounds nuw %struct.wt_status, ptr %35, i32 0, i32 35
  %37 = load ptr, ptr %36, align 8, !tbaa !28
  %38 = load ptr, ptr %9, align 8, !tbaa !9
  call void @color_print_strbuf(ptr noundef %37, ptr noundef %38, ptr noundef %13)
  %39 = load ptr, ptr %12, align 8, !tbaa !9
  %40 = icmp ne ptr %39, null
  br i1 %40, label %41, label %47

41:                                               ; preds = %34
  %42 = load ptr, ptr %7, align 8, !tbaa !4
  %43 = getelementptr inbounds nuw %struct.wt_status, ptr %42, i32 0, i32 35
  %44 = load ptr, ptr %43, align 8, !tbaa !28
  %45 = load ptr, ptr %12, align 8, !tbaa !9
  %46 = call i32 (ptr, ptr, ...) @fprintf(ptr noundef %44, ptr noundef @.str.10, ptr noundef %45) #12
  br label %47

47:                                               ; preds = %41, %34
  call void @strbuf_release(ptr noundef %13)
  store i32 1, ptr %17, align 4
  br label %117

48:                                               ; preds = %6
  %49 = getelementptr inbounds nuw %struct.strbuf, ptr %13, i32 0, i32 2
  %50 = load ptr, ptr %49, align 8, !tbaa !29
  store ptr %50, ptr %15, align 8, !tbaa !9
  br label %51

51:                                               ; preds = %104, %48
  %52 = load ptr, ptr %15, align 8, !tbaa !9
  %53 = load i8, ptr %52, align 1, !tbaa !30
  %54 = icmp ne i8 %53, 0
  br i1 %54, label %55, label %107

55:                                               ; preds = %51
  %56 = load ptr, ptr %15, align 8, !tbaa !9
  %57 = call ptr @strchr(ptr noundef %56, i32 noundef 10) #13
  store ptr %57, ptr %16, align 8, !tbaa !9
  call void @strbuf_setlen(ptr noundef %14, i64 noundef 0)
  %58 = load i32, ptr %8, align 4, !tbaa !11
  %59 = icmp ne i32 %58, 0
  br i1 %59, label %60, label %78

60:                                               ; preds = %55
  %61 = load ptr, ptr %7, align 8, !tbaa !4
  %62 = getelementptr inbounds nuw %struct.wt_status, ptr %61, i32 0, i32 11
  %63 = load i32, ptr %62, align 8, !tbaa !18
  %64 = icmp ne i32 %63, 0
  br i1 %64, label %65, label %78

65:                                               ; preds = %60
  %66 = load ptr, ptr @comment_line_str, align 8, !tbaa !9
  call void @strbuf_addstr(ptr noundef %14, ptr noundef %66)
  %67 = load ptr, ptr %15, align 8, !tbaa !9
  %68 = load i8, ptr %67, align 1, !tbaa !30
  %69 = sext i8 %68 to i32
  %70 = icmp ne i32 %69, 10
  br i1 %70, label %71, label %77

71:                                               ; preds = %65
  %72 = load ptr, ptr %15, align 8, !tbaa !9
  %73 = load i8, ptr %72, align 1, !tbaa !30
  %74 = sext i8 %73 to i32
  %75 = icmp ne i32 %74, 9
  br i1 %75, label %76, label %77

76:                                               ; preds = %71
  call void @strbuf_addch(ptr noundef %14, i32 noundef 32)
  br label %77

77:                                               ; preds = %76, %71, %65
  br label %78

78:                                               ; preds = %77, %60, %55
  %79 = load ptr, ptr %16, align 8, !tbaa !9
  %80 = icmp ne ptr %79, null
  br i1 %80, label %81, label %88

81:                                               ; preds = %78
  %82 = load ptr, ptr %15, align 8, !tbaa !9
  %83 = load ptr, ptr %16, align 8, !tbaa !9
  %84 = load ptr, ptr %15, align 8, !tbaa !9
  %85 = ptrtoint ptr %83 to i64
  %86 = ptrtoint ptr %84 to i64
  %87 = sub i64 %85, %86
  call void @strbuf_add(ptr noundef %14, ptr noundef %82, i64 noundef %87)
  br label %90

88:                                               ; preds = %78
  %89 = load ptr, ptr %15, align 8, !tbaa !9
  call void @strbuf_addstr(ptr noundef %14, ptr noundef %89)
  br label %90

90:                                               ; preds = %88, %81
  %91 = load ptr, ptr %7, align 8, !tbaa !4
  %92 = getelementptr inbounds nuw %struct.wt_status, ptr %91, i32 0, i32 35
  %93 = load ptr, ptr %92, align 8, !tbaa !28
  %94 = load ptr, ptr %9, align 8, !tbaa !9
  call void @color_print_strbuf(ptr noundef %93, ptr noundef %94, ptr noundef %14)
  %95 = load ptr, ptr %16, align 8, !tbaa !9
  %96 = icmp ne ptr %95, null
  br i1 %96, label %97, label %102

97:                                               ; preds = %90
  %98 = load ptr, ptr %7, align 8, !tbaa !4
  %99 = getelementptr inbounds nuw %struct.wt_status, ptr %98, i32 0, i32 35
  %100 = load ptr, ptr %99, align 8, !tbaa !28
  %101 = call i32 (ptr, ptr, ...) @fprintf(ptr noundef %100, ptr noundef @.str) #12
  br label %103

102:                                              ; preds = %90
  br label %107

103:                                              ; preds = %97
  store i32 1, ptr %8, align 4, !tbaa !11
  br label %104

104:                                              ; preds = %103
  %105 = load ptr, ptr %16, align 8, !tbaa !9
  %106 = getelementptr inbounds i8, ptr %105, i64 1
  store ptr %106, ptr %15, align 8, !tbaa !9
  br label %51, !llvm.loop !31

107:                                              ; preds = %102, %51
  %108 = load ptr, ptr %12, align 8, !tbaa !9
  %109 = icmp ne ptr %108, null
  br i1 %109, label %110, label %116

110:                                              ; preds = %107
  %111 = load ptr, ptr %7, align 8, !tbaa !4
  %112 = getelementptr inbounds nuw %struct.wt_status, ptr %111, i32 0, i32 35
  %113 = load ptr, ptr %112, align 8, !tbaa !28
  %114 = load ptr, ptr %12, align 8, !tbaa !9
  %115 = call i32 (ptr, ptr, ...) @fprintf(ptr noundef %113, ptr noundef @.str.10, ptr noundef %114) #12
  br label %116

116:                                              ; preds = %110, %107
  call void @strbuf_release(ptr noundef %14)
  call void @strbuf_release(ptr noundef %13)
  store i32 0, ptr %17, align 4
  br label %117

117:                                              ; preds = %116, %47
  call void @llvm.lifetime.end.p0(i64 8, ptr %16) #12
  call void @llvm.lifetime.end.p0(i64 8, ptr %15) #12
  call void @llvm.lifetime.end.p0(i64 24, ptr %14) #12
  call void @llvm.lifetime.end.p0(i64 24, ptr %13) #12
  %118 = load i32, ptr %17, align 4
  switch i32 %118, label %120 [
    i32 0, label %119
    i32 1, label %119
  ]

119:                                              ; preds = %117, %117
  ret void

120:                                              ; preds = %117
  unreachable
}