; Function Attrs: nounwind uwtable
define internal fastcc void @status_vprintf(ptr noundef readonly captures(none) %0, i32 noundef range(i32 0, 2) %1, ptr noundef %2, ptr noundef %3, ptr noundef nonnull %4, ptr noundef readonly %5) unnamed_addr #0 {
  %7 = alloca %struct.strbuf, align 8
  %8 = alloca %struct.strbuf, align 8
  call void @llvm.lifetime.start.p0(i64 24, ptr nonnull %7) #20
  call void @llvm.memcpy.p0.p0.i64(ptr noundef nonnull align 8 dereferenceable(24) %7, ptr noundef nonnull align 8 dereferenceable(24) @__const.wt_longstatus_print_other.buf, i64 24, i1 false)
  call void @llvm.lifetime.start.p0(i64 24, ptr nonnull %8) #20
  call void @llvm.memcpy.p0.p0.i64(ptr noundef nonnull align 8 dereferenceable(24) %8, ptr noundef nonnull align 8 dereferenceable(24) @__const.wt_longstatus_print_other.buf, i64 24, i1 false)
  call void @strbuf_vaddf(ptr noundef nonnull %7, ptr noundef %3, ptr noundef nonnull %4) #20
  %9 = getelementptr inbounds nuw i8, ptr %7, i64 8
  %10 = load i64, ptr %9, align 8, !tbaa !4
  %.not = icmp eq i64 %10, 0
  br i1 %.not, label %11, label %37

11:                                               ; preds = %6
  %12 = getelementptr inbounds nuw i8, ptr %0, i64 80
  %13 = load i32, ptr %12, align 8, !tbaa !11
  %.not32 = icmp eq i32 %13, 0
  %.not34 = icmp eq ptr %5, null
  br i1 %.not32, label %31, label %14

14:                                               ; preds = %11
  %15 = load ptr, ptr @comment_line_str, align 8, !tbaa !22
  %16 = call i64 @strlen(ptr noundef nonnull dereferenceable(1) %15) #21
  call void @strbuf_add(ptr noundef nonnull %7, ptr noundef nonnull %15, i64 noundef %16) #20
  br i1 %.not34, label %19, label %.thread54

.thread54:                                        ; preds = %14
  %17 = getelementptr inbounds nuw i8, ptr %0, i64 1080
  %18 = load ptr, ptr %17, align 8, !tbaa !23
  call void @color_print_strbuf(ptr noundef %18, ptr noundef %2, ptr noundef nonnull %7) #20
  br label %34

19:                                               ; preds = %14
  %20 = load i64, ptr %7, align 8, !tbaa !24
  %.not.i.i = icmp eq i64 %20, 0
  br i1 %.not.i.i, label %strbuf_avail.exit.thread.i, label %strbuf_avail.exit.i

strbuf_avail.exit.i:                              ; preds = %19
  %21 = load i64, ptr %9, align 8, !tbaa !4
  %.neg.i = add i64 %21, 1
  %.not.i = icmp eq i64 %20, %.neg.i
  br i1 %.not.i, label %strbuf_avail.exit.thread.i, label %.thread

strbuf_avail.exit.thread.i:                       ; preds = %strbuf_avail.exit.i, %19
  call void @strbuf_grow(ptr noundef nonnull %7, i64 noundef 1) #20
  %.pre.i = load i64, ptr %9, align 8, !tbaa !4
  %.pre7.i = add i64 %.pre.i, 1
  br label %.thread

.thread:                                          ; preds = %strbuf_avail.exit.thread.i, %strbuf_avail.exit.i
  %.pre-phi.i = phi i64 [ %.pre7.i, %strbuf_avail.exit.thread.i ], [ %.neg.i, %strbuf_avail.exit.i ]
  %22 = phi i64 [ %.pre.i, %strbuf_avail.exit.thread.i ], [ %21, %strbuf_avail.exit.i ]
  %23 = getelementptr inbounds nuw i8, ptr %7, i64 16
  %24 = load ptr, ptr %23, align 8, !tbaa !25
  store i64 %.pre-phi.i, ptr %9, align 8, !tbaa !4
  %25 = getelementptr inbounds nuw i8, ptr %24, i64 %22
  store i8 32, ptr %25, align 1, !tbaa !26
  %26 = load ptr, ptr %23, align 8, !tbaa !25
  %27 = load i64, ptr %9, align 8, !tbaa !4
  %28 = getelementptr inbounds nuw i8, ptr %26, i64 %27
  store i8 0, ptr %28, align 1, !tbaa !26
  %29 = getelementptr inbounds nuw i8, ptr %0, i64 1080
  %30 = load ptr, ptr %29, align 8, !tbaa !23
  call void @color_print_strbuf(ptr noundef %30, ptr noundef %2, ptr noundef nonnull %7) #20
  br label %80

31:                                               ; preds = %11
  %32 = getelementptr inbounds nuw i8, ptr %0, i64 1080
  %33 = load ptr, ptr %32, align 8, !tbaa !23
  call void @color_print_strbuf(ptr noundef %33, ptr noundef %2, ptr noundef nonnull %7) #20
  br i1 %.not34, label %80, label %34

34:                                               ; preds = %.thread54, %31
  %35 = phi ptr [ %17, %.thread54 ], [ %32, %31 ]
  %36 = load ptr, ptr %35, align 8, !tbaa !23
  %fputs = call i32 @fputs(ptr nonnull %5, ptr %36)
  br label %80

37:                                               ; preds = %6
  %38 = getelementptr inbounds nuw i8, ptr %7, i64 16
  %39 = load ptr, ptr %38, align 8, !tbaa !25
  %40 = load i8, ptr %39, align 1, !tbaa !26
  %.not3558 = icmp eq i8 %40, 0
  br i1 %.not3558, label %.loopexit, label %.lr.ph

.lr.ph:                                           ; preds = %37
  %41 = icmp eq i32 %1, 0
  %42 = getelementptr inbounds nuw i8, ptr %8, i64 8
  %43 = getelementptr inbounds nuw i8, ptr %8, i64 16
  %44 = getelementptr inbounds nuw i8, ptr %0, i64 80
  %45 = getelementptr inbounds nuw i8, ptr %0, i64 1080
  br label %46

46:                                               ; preds = %.lr.ph, %68
  %.060 = phi i1 [ %41, %.lr.ph ], [ false, %68 ]
  %.02759 = phi ptr [ %39, %.lr.ph ], [ %74, %68 ]
  %47 = call ptr @strchr(ptr noundef nonnull dereferenceable(1) %.02759, i32 noundef 10) #21
  store i64 0, ptr %42, align 8, !tbaa !4
  %48 = load ptr, ptr %43, align 8, !tbaa !25
  %.not9.i = icmp eq ptr %48, @strbuf_slopbuf
  br i1 %.not9.i, label %strbuf_setlen.exit, label %49

49:                                               ; preds = %46
  store i8 0, ptr %48, align 1, !tbaa !26
  br label %strbuf_setlen.exit

strbuf_setlen.exit:                               ; preds = %46, %49
  br i1 %.060, label %65, label %50

50:                                               ; preds = %strbuf_setlen.exit
  %51 = load i32, ptr %44, align 8, !tbaa !11
  %.not37 = icmp eq i32 %51, 0
  br i1 %.not37, label %65, label %52

52:                                               ; preds = %50
  %53 = load ptr, ptr @comment_line_str, align 8, !tbaa !22
  %54 = call i64 @strlen(ptr noundef nonnull dereferenceable(1) %53) #21
  call void @strbuf_add(ptr noundef nonnull %8, ptr noundef nonnull %53, i64 noundef %54) #20
  %55 = load i8, ptr %.02759, align 1, !tbaa !26
  %.off = add i8 %55, -9
  %switch = icmp ult i8 %.off, 2
  br i1 %switch, label %65, label %56

56:                                               ; preds = %52
  %57 = load i64, ptr %8, align 8, !tbaa !24
  %.not.i.i43 = icmp eq i64 %57, 0
  br i1 %.not.i.i43, label %strbuf_avail.exit.thread.i48, label %strbuf_avail.exit.i44

strbuf_avail.exit.i44:                            ; preds = %56
  %58 = load i64, ptr %42, align 8, !tbaa !4
  %.neg.i45 = add i64 %58, 1
  %.not.i46 = icmp eq i64 %57, %.neg.i45
  br i1 %.not.i46, label %strbuf_avail.exit.thread.i48, label %strbuf_addch.exit52

strbuf_avail.exit.thread.i48:                     ; preds = %strbuf_avail.exit.i44, %56
  call void @strbuf_grow(ptr noundef nonnull %8, i64 noundef 1) #20
  %.pre.i50 = load i64, ptr %42, align 8, !tbaa !4
  %.pre7.i51 = add i64 %.pre.i50, 1
  br label %strbuf_addch.exit52

strbuf_addch.exit52:                              ; preds = %strbuf_avail.exit.i44, %strbuf_avail.exit.thread.i48
  %.pre-phi.i47 = phi i64 [ %.pre7.i51, %strbuf_avail.exit.thread.i48 ], [ %.neg.i45, %strbuf_avail.exit.i44 ]
  %59 = phi i64 [ %.pre.i50, %strbuf_avail.exit.thread.i48 ], [ %58, %strbuf_avail.exit.i44 ]
  %60 = load ptr, ptr %43, align 8, !tbaa !25
  store i64 %.pre-phi.i47, ptr %42, align 8, !tbaa !4
  %61 = getelementptr inbounds nuw i8, ptr %60, i64 %59
  store i8 32, ptr %61, align 1, !tbaa !26
  %62 = load ptr, ptr %43, align 8, !tbaa !25
  %63 = load i64, ptr %42, align 8, !tbaa !4
  %64 = getelementptr inbounds nuw i8, ptr %62, i64 %63
  store i8 0, ptr %64, align 1, !tbaa !26
  br label %65

65:                                               ; preds = %52, %strbuf_addch.exit52, %50, %strbuf_setlen.exit
  %.not40 = icmp eq ptr %47, null
  br i1 %.not40, label %.thread56, label %68

.thread56:                                        ; preds = %65
  %66 = call i64 @strlen(ptr noundef nonnull dereferenceable(1) %.02759) #21
  call void @strbuf_add(ptr noundef nonnull %8, ptr noundef nonnull %.02759, i64 noundef %66) #20
  %67 = load ptr, ptr %45, align 8, !tbaa !23
  call void @color_print_strbuf(ptr noundef %67, ptr noundef %2, ptr noundef nonnull %8) #20
  br label %.loopexit

68:                                               ; preds = %65
  %69 = ptrtoint ptr %47 to i64
  %70 = ptrtoint ptr %.02759 to i64
  %71 = sub i64 %69, %70
  call void @strbuf_add(ptr noundef nonnull %8, ptr noundef nonnull %.02759, i64 noundef %71) #20
  %72 = load ptr, ptr %45, align 8, !tbaa !23
  call void @color_print_strbuf(ptr noundef %72, ptr noundef %2, ptr noundef nonnull %8) #20
  %73 = load ptr, ptr %45, align 8, !tbaa !23
  %fputc = call i32 @fputc(i32 10, ptr %73)
  %74 = getelementptr inbounds nuw i8, ptr %47, i64 1
  %75 = load i8, ptr %74, align 1, !tbaa !26
  %.not35 = icmp eq i8 %75, 0
  br i1 %.not35, label %.loopexit, label %46, !llvm.loop !27

.loopexit:                                        ; preds = %68, %37, %.thread56
  %.not41 = icmp eq ptr %5, null
  br i1 %.not41, label %79, label %76

76:                                               ; preds = %.loopexit
  %77 = getelementptr inbounds nuw i8, ptr %0, i64 1080
  %78 = load ptr, ptr %77, align 8, !tbaa !23
  %fputs42 = call i32 @fputs(ptr nonnull %5, ptr %78)
  br label %79

79:                                               ; preds = %76, %.loopexit
  call void @strbuf_release(ptr noundef nonnull %8) #20
  br label %80

80:                                               ; preds = %31, %34, %.thread, %79
  call void @strbuf_release(ptr noundef nonnull %7) #20
  call void @llvm.lifetime.end.p0(i64 24, ptr nonnull %8) #20
  call void @llvm.lifetime.end.p0(i64 24, ptr nonnull %7) #20
  ret void
}